; Function Attrs: mustprogress nounwind uwtable
define hidden noundef zeroext i1 @_ZNK4llvh6detail9IEEEFloat10isDenormalEv(ptr noundef nonnull align 8 dereferenceable(24) %this) local_unnamed_addr #2 align 2 {
entry:
  %category.i.i.i = getelementptr inbounds nuw i8, ptr %this, i64 18
  %bf.load.i.i.i = load i8, ptr %category.i.i.i, align 2
  %bf.clear.i.i.i = and i8 %bf.load.i.i.i, 6
  %0 = icmp ne i8 %bf.clear.i.i.i, 0
  %bf.clear.i.i = and i8 %bf.load.i.i.i, 7
  %cmp.i.i = icmp ne i8 %bf.clear.i.i, 3
  %1 = and i1 %0, %cmp.i.i
  br i1 %1, label %land.lhs.true, label %land.end

land.lhs.true:                                    ; preds = %entry
  %exponent = getelementptr inbounds nuw i8, ptr %this, i64 16
  %2 = load i16, ptr %exponent, align 8
  %3 = load ptr, ptr %this, align 8
  %minExponent = getelementptr inbounds nuw i8, ptr %3, i64 2
  %4 = load i16, ptr %minExponent, align 2
  %cmp = icmp eq i16 %2, %4
  br i1 %cmp, label %land.rhs, label %land.end

land.rhs:                                         ; preds = %land.lhs.true
  %precision.i.i.i = getelementptr inbounds nuw i8, ptr %3, i64 4
  %5 = load i32, ptr %precision.i.i.i, align 4
  %6 = add i32 %5, -64
  %cmp.i.i1 = icmp ult i32 %6, -128
  %significand.i.i = getelementptr inbounds nuw i8, ptr %this, i64 8
  %7 = load ptr, ptr %significand.i.i, align 8
  %retval.0.i.i = select i1 %cmp.i.i1, ptr %7, ptr %significand.i.i
  %sub = add i32 %5, -1
  %call5 = tail call noundef i32 @_ZN4llvh5APInt12tcExtractBitEPKmj(ptr noundef %retval.0.i.i, i32 noundef %sub) #26
  %cmp6 = icmp eq i32 %call5, 0
  br label %land.end

land.end:                                         ; preds = %land.rhs, %land.lhs.true, %entry
  %8 = phi i1 [ false, %land.lhs.true ], [ false, %entry ], [ %cmp6, %land.rhs ]
  ret i1 %8
}